; Function Attrs: mustprogress nounwind uwtable
define hidden void @_ZN19OpenColorIO_v2_4dev20GenericGpuShaderDescD2Ev(ptr noundef nonnull align 8 dereferenceable(24) %this) unnamed_addr #6 align 2 {
entry:
  store ptr getelementptr inbounds ({ [34 x ptr] }, ptr @_ZTVN19OpenColorIO_v2_4dev20GenericGpuShaderDescE, i64 0, i32 0, i64 2), ptr %this, align 8
  %m_implGeneric = getelementptr inbounds i8, ptr %this, i64 16
  %0 = load ptr, ptr %m_implGeneric, align 8
  %isnull = icmp eq ptr %0, null
  br i1 %isnull, label %delete.end, label %delete.notnull

delete.notnull:                                   ; preds = %entry
  %vtable = load ptr, ptr %0, align 8
  %vfn = getelementptr inbounds i8, ptr %vtable, i64 8
  %1 = load ptr, ptr %vfn, align 8
  tail call void %1(ptr noundef nonnull align 8 dereferenceable(85) %0) #21
  br label %delete.end

delete.end:                                       ; preds = %delete.notnull, %entry
  store ptr null, ptr %m_implGeneric, align 8
  tail call void @_ZN19OpenColorIO_v2_4dev13GpuShaderDescD2Ev(ptr noundef nonnull align 8 dereferenceable(16) %this) #21
  ret void
}